; Function Attrs: mustprogress uwtable
define hidden noalias noundef ptr @_Z23mk_ackr_model_converterR11ast_managerRK3refI9ackr_infoERS1_I5modelE(ptr noundef nonnull align 8 dereferenceable(976) %0, ptr noundef nonnull readonly align 8 captures(none) dereferenceable(8) %1, ptr noundef nonnull readonly align 8 captures(none) dereferenceable(8) %2) local_unnamed_addr #3 personality ptr @__gxx_personality_v0 {
  %4 = tail call noalias noundef ptr @_ZN6memory8allocateEm(i64 noundef 64)
  %5 = getelementptr inbounds nuw i8, ptr %4, i64 8
  store i32 0, ptr %5, align 8, !tbaa !149
  %6 = getelementptr inbounds nuw i8, ptr %4, i64 16
  store ptr null, ptr %6, align 8, !tbaa !150
  %7 = getelementptr inbounds nuw i8, ptr %4, i64 24
  store i8 1, ptr %7, align 8, !tbaa !151
  store ptr getelementptr inbounds nuw inrange(-16, 88) (i8, ptr @_ZTV20ackr_model_converter, i64 16), ptr %4, align 8, !tbaa !152
  %8 = getelementptr inbounds nuw i8, ptr %4, i64 32
  store ptr %0, ptr %8, align 8, !tbaa !110
  %9 = getelementptr inbounds nuw i8, ptr %4, i64 40
  %10 = load ptr, ptr %1, align 8, !tbaa !46
  store ptr %10, ptr %9, align 8, !tbaa !46
  %.not.i.i.i = icmp eq ptr %10, null
  br i1 %.not.i.i.i, label %_ZN3refI9ackr_infoEC2ERKS1_.exit.i, label %11

11:                                               ; preds = %3
  %12 = getelementptr inbounds nuw i8, ptr %10, i64 128
  %13 = load i32, ptr %12, align 8, !tbaa !154
  %14 = add i32 %13, 1
  store i32 %14, ptr %12, align 8, !tbaa !154
  br label %_ZN3refI9ackr_infoEC2ERKS1_.exit.i

_ZN3refI9ackr_infoEC2ERKS1_.exit.i:               ; preds = %11, %3
  %15 = getelementptr inbounds nuw i8, ptr %4, i64 48
  %16 = load ptr, ptr %2, align 8, !tbaa !155
  store ptr %16, ptr %15, align 8, !tbaa !155
  %.not.i.i5.i = icmp eq ptr %16, null
  br i1 %.not.i.i5.i, label %_ZN20ackr_model_converterC2ER11ast_managerRK3refI9ackr_infoERS2_I5modelE.exit, label %17

17:                                               ; preds = %_ZN3refI9ackr_infoEC2ERKS1_.exit.i
  %18 = getelementptr inbounds nuw i8, ptr %16, i64 16
  %19 = load i32, ptr %18, align 8, !tbaa !157
  %20 = add i32 %19, 1
  store i32 %20, ptr %18, align 8, !tbaa !157
  br label %_ZN20ackr_model_converterC2ER11ast_managerRK3refI9ackr_infoERS2_I5modelE.exit

_ZN20ackr_model_converterC2ER11ast_managerRK3refI9ackr_infoERS2_I5modelE.exit: ; preds = %_ZN3refI9ackr_infoEC2ERKS1_.exit.i, %17
  %21 = getelementptr inbounds nuw i8, ptr %4, i64 56
  store i8 1, ptr %21, align 8, !tbaa !156
  ret ptr %4
}